target datalayout = "e-m:e-p270:32:32-p271:32:32-p272:64:64-i64:64-i128:128-f80:128-n8:16:32:64-S128"
target triple = "x86_64-pc-linux-gnu"

%struct.sat_solver2_t = type { i32, i32, i32, i32, i32, double, double, i32, i32, i32, i32, ptr, ptr, i32, i32, i32, i32, i32, i32, i32, i32, i32, i32, i32, %struct.Sat_Mem_t_, ptr, %struct.veci_t, %struct.veci_t, i32, i32, i32, ptr, ptr, ptr, ptr, ptr, ptr, ptr, ptr, %struct.veci_t, %struct.veci_t, %struct.veci_t, %struct.veci_t, %struct.veci_t, %struct.veci_t, %struct.veci_t, %struct.veci_t, %struct.veci_t, %struct.veci_t, ptr, %struct.veci_t, i32, i32, ptr, double, ptr, i32, %struct.stats_t, i64, i64, i64 }
%struct.Sat_Mem_t_ = type { [2 x i32], [2 x i32], [2 x i32], [2 x i32], i32, i32, i32, i32, ptr }
%struct.veci_t = type { i32, i32, ptr }
%struct.stats_t = type { i32, i32, i32, i64, i64, i64, i64, i64, i64, i64 }
%struct.varinfo2_t = type { i8, [3 x i8] }

; Function Attrs: nounwind uwtable
define internal void @order_update(ptr noundef %0, i32 noundef %1) #0 {
  %3 = alloca ptr, align 8
  %4 = alloca i32, align 4
  %5 = alloca ptr, align 8
  %6 = alloca ptr, align 8
  %7 = alloca i32, align 4
  %8 = alloca i32, align 4
  %9 = alloca i32, align 4
  store ptr %0, ptr %3, align 8
  store i32 %1, ptr %4, align 4
  %10 = load ptr, ptr %3, align 8
  %11 = getelementptr inbounds %struct.sat_solver2_t, ptr %10, i32 0, i32 35
  %12 = load ptr, ptr %11, align 8
  store ptr %12, ptr %5, align 8
  %13 = load ptr, ptr %3, align 8
  %14 = getelementptr inbounds %struct.sat_solver2_t, ptr %13, i32 0, i32 41
  %15 = call ptr @veci_begin(ptr noundef %14)
  store ptr %15, ptr %6, align 8
  %16 = load ptr, ptr %5, align 8
  %17 = load i32, ptr %4, align 4
  %18 = sext i32 %17 to i64
  %19 = getelementptr inbounds i32, ptr %16, i64 %18
  %20 = load i32, ptr %19, align 4
  store i32 %20, ptr %7, align 4
  %21 = load ptr, ptr %6, align 8
  %22 = load i32, ptr %7, align 4
  %23 = sext i32 %22 to i64
  %24 = getelementptr inbounds i32, ptr %21, i64 %23
  %25 = load i32, ptr %24, align 4
  store i32 %25, ptr %8, align 4
  %26 = load i32, ptr %7, align 4
  %27 = sub nsw i32 %26, 1
  %28 = sdiv i32 %27, 2
  store i32 %28, ptr %9, align 4
  br label %29

29:                                               ; preds = %54, %2
  %30 = load i32, ptr %7, align 4
  %31 = icmp ne i32 %30, 0
  br i1 %31, label %32, label %52

32:                                               ; preds = %29
  %33 = load ptr, ptr %3, align 8
  %34 = getelementptr inbounds %struct.sat_solver2_t, ptr %33, i32 0, i32 11
  %35 = load ptr, ptr %34, align 8
  %36 = load i32, ptr %8, align 4
  %37 = sext i32 %36 to i64
  %38 = getelementptr inbounds i32, ptr %35, i64 %37
  %39 = load i32, ptr %38, align 4
  %40 = load ptr, ptr %3, align 8
  %41 = getelementptr inbounds %struct.sat_solver2_t, ptr %40, i32 0, i32 11
  %42 = load ptr, ptr %41, align 8
  %43 = load ptr, ptr %6, align 8
  %44 = load i32, ptr %9, align 4
  %45 = sext i32 %44 to i64
  %46 = getelementptr inbounds i32, ptr %43, i64 %45
  %47 = load i32, ptr %46, align 4
  %48 = sext i32 %47 to i64
  %49 = getelementptr inbounds i32, ptr %42, i64 %48
  %50 = load i32, ptr %49, align 4
  %51 = icmp ugt i32 %39, %50
  br label %52

52:                                               ; preds = %32, %29
  %53 = phi i1 [ false, %29 ], [ %51, %32 ]
  br i1 %53, label %54, label %77

54:                                               ; preds = %52
  %55 = load ptr, ptr %6, align 8
  %56 = load i32, ptr %9, align 4
  %57 = sext i32 %56 to i64
  %58 = getelementptr inbounds i32, ptr %55, i64 %57
  %59 = load i32, ptr %58, align 4
  %60 = load ptr, ptr %6, align 8
  %61 = load i32, ptr %7, align 4
  %62 = sext i32 %61 to i64
  %63 = getelementptr inbounds i32, ptr %60, i64 %62
  store i32 %59, ptr %63, align 4
  %64 = load i32, ptr %7, align 4
  %65 = load ptr, ptr %5, align 8
  %66 = load ptr, ptr %6, align 8
  %67 = load i32, ptr %7, align 4
  %68 = sext i32 %67 to i64
  %69 = getelementptr inbounds i32, ptr %66, i64 %68
  %70 = load i32, ptr %69, align 4
  %71 = sext i32 %70 to i64
  %72 = getelementptr inbounds i32, ptr %65, i64 %71
  store i32 %64, ptr %72, align 4
  %73 = load i32, ptr %9, align 4
  store i32 %73, ptr %7, align 4
  %74 = load i32, ptr %7, align 4
  %75 = sub nsw i32 %74, 1
  %76 = sdiv i32 %75, 2
  store i32 %76, ptr %9, align 4
  br label %29, !llvm.loop !13

77:                                               ; preds = %52
  %78 = load i32, ptr %8, align 4
  %79 = load ptr, ptr %6, align 8
  %80 = load i32, ptr %7, align 4
  %81 = sext i32 %80 to i64
  %82 = getelementptr inbounds i32, ptr %79, i64 %81
  store i32 %78, ptr %82, align 4
  %83 = load i32, ptr %7, align 4
  %84 = load ptr, ptr %5, align 8
  %85 = load i32, ptr %8, align 4
  %86 = sext i32 %85 to i64
  %87 = getelementptr inbounds i32, ptr %84, i64 %86
  store i32 %83, ptr %87, align 4
  ret void
}

; Function Attrs: nounwind uwtable
define internal void @veci_resize(ptr noundef %0, i32 noundef %1) #0 {
  %3 = alloca ptr, align 8
  %4 = alloca i32, align 4
  store ptr %0, ptr %3, align 8
  store i32 %1, ptr %4, align 4
  %5 = load i32, ptr %4, align 4
  %6 = load ptr, ptr %3, align 8
  %7 = getelementptr inbounds %struct.veci_t, ptr %6, i32 0, i32 1
  store i32 %5, ptr %7, align 4
  ret void
}

; Function Attrs: nounwind uwtable
define internal void @order_unassigned(ptr noundef %0, i32 noundef %1) #0 {
  %3 = alloca ptr, align 8
  %4 = alloca i32, align 4
  %5 = alloca ptr, align 8
  store ptr %0, ptr %3, align 8
  store i32 %1, ptr %4, align 4
  %6 = load ptr, ptr %3, align 8
  %7 = getelementptr inbounds %struct.sat_solver2_t, ptr %6, i32 0, i32 35
  %8 = load ptr, ptr %7, align 8
  store ptr %8, ptr %5, align 8
  %9 = load ptr, ptr %5, align 8
  %10 = load i32, ptr %4, align 4
  %11 = sext i32 %10 to i64
  %12 = getelementptr inbounds i32, ptr %9, i64 %11
  %13 = load i32, ptr %12, align 4
  %14 = icmp eq i32 %13, -1
  br i1 %14, label %15, label %28

15:                                               ; preds = %2
  %16 = load ptr, ptr %3, align 8
  %17 = getelementptr inbounds %struct.sat_solver2_t, ptr %16, i32 0, i32 41
  %18 = call i32 @veci_size(ptr noundef %17)
  %19 = load ptr, ptr %5, align 8
  %20 = load i32, ptr %4, align 4
  %21 = sext i32 %20 to i64
  %22 = getelementptr inbounds i32, ptr %19, i64 %21
  store i32 %18, ptr %22, align 4
  %23 = load ptr, ptr %3, align 8
  %24 = getelementptr inbounds %struct.sat_solver2_t, ptr %23, i32 0, i32 41
  %25 = load i32, ptr %4, align 4
  call void @veci_push(ptr noundef %24, i32 noundef %25)
  %26 = load ptr, ptr %3, align 8
  %27 = load i32, ptr %4, align 4
  call void @order_update(ptr noundef %26, i32 noundef %27)
  br label %28

28:                                               ; preds = %15, %2
  ret void
}

; Function Attrs: nounwind uwtable
define internal void @var_set_polar(ptr noundef %0, i32 noundef %1, i32 noundef %2) #0 {
  %4 = alloca ptr, align 8
  %5 = alloca i32, align 4
  %6 = alloca i32, align 4
  store ptr %0, ptr %4, align 8
  store i32 %1, ptr %5, align 4
  store i32 %2, ptr %6, align 4
  %7 = load i32, ptr %6, align 4
  %8 = load ptr, ptr %4, align 8
  %9 = getelementptr inbounds %struct.sat_solver2_t, ptr %8, i32 0, i32 31
  %10 = load ptr, ptr %9, align 8
  %11 = load i32, ptr %5, align 4
  %12 = sext i32 %11 to i64
  %13 = getelementptr inbounds %struct.varinfo2_t, ptr %10, i64 %12
  %14 = trunc i32 %7 to i8
  %15 = load i8, ptr %13, align 4
  %16 = and i8 %14, 1
  %17 = and i8 %15, -2
  %18 = or i8 %17, %16
  store i8 %18, ptr %13, align 4
  ret void
}

; Function Attrs: nounwind uwtable
define internal i32 @lit_sign(i32 noundef %0) #0 {
  %2 = alloca i32, align 4
  store i32 %0, ptr %2, align 4
  %3 = load i32, ptr %2, align 4
  %4 = and i32 %3, 1
  ret i32 %4
}

; Function Attrs: nounwind uwtable
define internal void @var_set_value(ptr noundef %0, i32 noundef %1, i32 noundef %2) #0 {
  %4 = alloca ptr, align 8
  %5 = alloca i32, align 4
  %6 = alloca i32, align 4
  store ptr %0, ptr %4, align 8
  store i32 %1, ptr %5, align 4
  store i32 %2, ptr %6, align 4
  %7 = load i32, ptr %6, align 4
  %8 = trunc i32 %7 to i8
  %9 = load ptr, ptr %4, align 8
  %10 = getelementptr inbounds %struct.sat_solver2_t, ptr %9, i32 0, i32 33
  %11 = load ptr, ptr %10, align 8
  %12 = load i32, ptr %5, align 4
  %13 = sext i32 %12 to i64
  %14 = getelementptr inbounds i8, ptr %11, i64 %13
  store i8 %8, ptr %14, align 1
  ret void
}

; Function Attrs: nounwind uwtable
define internal i32 @lit_var(i32 noundef %0) #0 {
  %2 = alloca i32, align 4
  store i32 %0, ptr %2, align 4
  %3 = load i32, ptr %2, align 4
  %4 = ashr i32 %3, 1
  ret i32 %4
}

; Function Attrs: nounwind uwtable
define internal i32 @veci_size(ptr noundef %0) #0 {
  %2 = alloca ptr, align 8
  store ptr %0, ptr %2, align 8
  %3 = load ptr, ptr %2, align 8
  %4 = getelementptr inbounds %struct.veci_t, ptr %3, i32 0, i32 1
  %5 = load i32, ptr %4, align 4
  ret i32 %5
}

; Function Attrs: nounwind uwtable
define internal ptr @veci_begin(ptr noundef %0) #0 {
  %2 = alloca ptr, align 8
  store ptr %0, ptr %2, align 8
  %3 = load ptr, ptr %2, align 8
  %4 = getelementptr inbounds %struct.veci_t, ptr %3, i32 0, i32 2
  %5 = load ptr, ptr %4, align 8
  ret ptr %5
}

; Function Attrs: nounwind uwtable
define internal i32 @solver2_dlevel(ptr noundef %0) #0 {
  %2 = alloca ptr, align 8
  store ptr %0, ptr %2, align 8
  %3 = load ptr, ptr %2, align 8
  %4 = getelementptr inbounds %struct.sat_solver2_t, ptr %3, i32 0, i32 42
  %5 = call i32 @veci_size(ptr noundef %4)
  ret i32 %5
}

; Function Attrs: nounwind uwtable
define internal void @solver2_canceluntil(ptr noundef %0, i32 noundef %1) #0 {
  %3 = alloca ptr, align 8
  %4 = alloca i32, align 4
  %5 = alloca i32, align 4
  %6 = alloca i32, align 4
  %7 = alloca i32, align 4
  %8 = alloca i32, align 4
  store ptr %0, ptr %3, align 8
  store i32 %1, ptr %4, align 4
  %9 = load ptr, ptr %3, align 8
  %10 = call i32 @solver2_dlevel(ptr noundef %9)
  %11 = load i32, ptr %4, align 4
  %12 = icmp sle i32 %10, %11
  br i1 %12, label %13, label %14

13:                                               ; preds = %2
  br label %115

14:                                               ; preds = %2
  %15 = load ptr, ptr %3, align 8
  %16 = getelementptr inbounds %struct.sat_solver2_t, ptr %15, i32 0, i32 42
  %17 = call ptr @veci_begin(ptr noundef %16)
  %18 = load i32, ptr %4, align 4
  %19 = sext i32 %18 to i64
  %20 = getelementptr inbounds i32, ptr %17, i64 %19
  %21 = load i32, ptr %20, align 4
  store i32 %21, ptr %5, align 4
  %22 = load ptr, ptr %3, align 8
  %23 = getelementptr inbounds %struct.sat_solver2_t, ptr %22, i32 0, i32 42
  %24 = call ptr @veci_begin(ptr noundef %23)
  %25 = load ptr, ptr %3, align 8
  %26 = getelementptr inbounds %struct.sat_solver2_t, ptr %25, i32 0, i32 42
  %27 = call i32 @veci_size(ptr noundef %26)
  %28 = sub nsw i32 %27, 1
  %29 = sext i32 %28 to i64
  %30 = getelementptr inbounds i32, ptr %24, i64 %29
  %31 = load i32, ptr %30, align 4
  store i32 %31, ptr %6, align 4
  %32 = load ptr, ptr %3, align 8
  %33 = getelementptr inbounds %struct.sat_solver2_t, ptr %32, i32 0, i32 3
  %34 = load i32, ptr %33, align 4
  %35 = sub nsw i32 %34, 1
  store i32 %35, ptr %7, align 4
  br label %36

36:                                               ; preds = %81, %14
  %37 = load i32, ptr %7, align 4
  %38 = load i32, ptr %5, align 4
  %39 = icmp sge i32 %37, %38
  br i1 %39, label %40, label %84

40:                                               ; preds = %36
  %41 = load ptr, ptr %3, align 8
  %42 = getelementptr inbounds %struct.sat_solver2_t, ptr %41, i32 0, i32 34
  %43 = load ptr, ptr %42, align 8
  %44 = load i32, ptr %7, align 4
  %45 = sext i32 %44 to i64
  %46 = getelementptr inbounds i32, ptr %43, i64 %45
  %47 = load i32, ptr %46, align 4
  %48 = call i32 @lit_var(i32 noundef %47)
  store i32 %48, ptr %8, align 4
  %49 = load ptr, ptr %3, align 8
  %50 = load i32, ptr %8, align 4
  call void @var_set_value(ptr noundef %49, i32 noundef %50, i32 noundef 3)
  %51 = load ptr, ptr %3, align 8
  %52 = getelementptr inbounds %struct.sat_solver2_t, ptr %51, i32 0, i32 36
  %53 = load ptr, ptr %52, align 8
  %54 = load i32, ptr %8, align 4
  %55 = sext i32 %54 to i64
  %56 = getelementptr inbounds i32, ptr %53, i64 %55
  store i32 0, ptr %56, align 4
  %57 = load ptr, ptr %3, align 8
  %58 = getelementptr inbounds %struct.sat_solver2_t, ptr %57, i32 0, i32 37
  %59 = load ptr, ptr %58, align 8
  %60 = load i32, ptr %8, align 4
  %61 = sext i32 %60 to i64
  %62 = getelementptr inbounds i32, ptr %59, i64 %61
  store i32 0, ptr %62, align 4
  %63 = load i32, ptr %7, align 4
  %64 = load i32, ptr %6, align 4
  %65 = icmp slt i32 %63, %64
  br i1 %65, label %66, label %80

66:                                               ; preds = %40
  %67 = load ptr, ptr %3, align 8
  %68 = load i32, ptr %8, align 4
  %69 = load ptr, ptr %3, align 8
  %70 = getelementptr inbounds %struct.sat_solver2_t, ptr %69, i32 0, i32 34
  %71 = load ptr, ptr %70, align 8
  %72 = load i32, ptr %7, align 4
  %73 = sext i32 %72 to i64
  %74 = getelementptr inbounds i32, ptr %71, i64 %73
  %75 = load i32, ptr %74, align 4
  %76 = call i32 @lit_sign(i32 noundef %75)
  %77 = icmp ne i32 %76, 0
  %78 = xor i1 %77, true
  %79 = zext i1 %78 to i32
  call void @var_set_polar(ptr noundef %67, i32 noundef %68, i32 noundef %79)
  br label %80

80:                                               ; preds = %66, %40
  br label %81

81:                                               ; preds = %80
  %82 = load i32, ptr %7, align 4
  %83 = add nsw i32 %82, -1
  store i32 %83, ptr %7, align 4
  br label %36, !llvm.loop !54

84:                                               ; preds = %36
  %85 = load ptr, ptr %3, align 8
  %86 = getelementptr inbounds %struct.sat_solver2_t, ptr %85, i32 0, i32 2
  %87 = load i32, ptr %86, align 8
  %88 = sub nsw i32 %87, 1
  store i32 %88, ptr %7, align 4
  br label %89

89:                                               ; preds = %103, %84
  %90 = load i32, ptr %7, align 4
  %91 = load i32, ptr %5, align 4
  %92 = icmp sge i32 %90, %91
  br i1 %92, label %93, label %106

93:                                               ; preds = %89
  %94 = load ptr, ptr %3, align 8
  %95 = load ptr, ptr %3, align 8
  %96 = getelementptr inbounds %struct.sat_solver2_t, ptr %95, i32 0, i32 34
  %97 = load ptr, ptr %96, align 8
  %98 = load i32, ptr %7, align 4
  %99 = sext i32 %98 to i64
  %100 = getelementptr inbounds i32, ptr %97, i64 %99
  %101 = load i32, ptr %100, align 4
  %102 = call i32 @lit_var(i32 noundef %101)
  call void @order_unassigned(ptr noundef %94, i32 noundef %102)
  br label %103

103:                                              ; preds = %93
  %104 = load i32, ptr %7, align 4
  %105 = add nsw i32 %104, -1
  store i32 %105, ptr %7, align 4
  br label %89, !llvm.loop !55

106:                                              ; preds = %89
  %107 = load i32, ptr %5, align 4
  %108 = load ptr, ptr %3, align 8
  %109 = getelementptr inbounds %struct.sat_solver2_t, ptr %108, i32 0, i32 3
  store i32 %107, ptr %109, align 4
  %110 = load ptr, ptr %3, align 8
  %111 = getelementptr inbounds %struct.sat_solver2_t, ptr %110, i32 0, i32 2
  store i32 %107, ptr %111, align 8
  %112 = load ptr, ptr %3, align 8
  %113 = getelementptr inbounds %struct.sat_solver2_t, ptr %112, i32 0, i32 42
  %114 = load i32, ptr %4, align 4
  call void @veci_resize(ptr noundef %113, i32 noundef %114)
  br label %115

115:                                              ; preds = %106, %13
  ret void
}