; Function Attrs: nounwind uwtable
define internal fastcc void @solver2_canceluntil(ptr noundef captures(none) %0, i32 noundef %1) unnamed_addr #2 {
  %3 = getelementptr i8, ptr %0, i64 348
  %.val43 = load i32, ptr %3, align 4
  %.not = icmp sgt i32 %.val43, %1
  br i1 %.not, label %4, label %90

4:                                                ; preds = %2
  %5 = getelementptr i8, ptr %0, i64 352
  %.val41 = load ptr, ptr %5, align 8
  %6 = sext i32 %1 to i64
  %7 = getelementptr inbounds i32, ptr %.val41, i64 %6
  %8 = load i32, ptr %7, align 4
  %9 = getelementptr inbounds nuw i8, ptr %0, i64 12
  %10 = load i32, ptr %9, align 4
  %.not37.not47 = icmp sgt i32 %10, %8
  br i1 %.not37.not47, label %.lr.ph, label %._crit_edge

.lr.ph:                                           ; preds = %4
  %11 = sext i32 %.val43 to i64
  %12 = getelementptr i32, ptr %.val41, i64 %11
  %13 = getelementptr i8, ptr %12, i64 -4
  %14 = load i32, ptr %13, align 4
  %15 = getelementptr inbounds nuw i8, ptr %0, i64 256
  %16 = getelementptr i8, ptr %0, i64 248
  %17 = getelementptr inbounds nuw i8, ptr %0, i64 272
  %18 = getelementptr inbounds nuw i8, ptr %0, i64 280
  %19 = getelementptr i8, ptr %0, i64 232
  %20 = sext i32 %10 to i64
  %21 = sext i32 %14 to i64
  %22 = sext i32 %8 to i64
  br label %23

23:                                               ; preds = %.lr.ph, %45
  %indvars.iv = phi i64 [ %20, %.lr.ph ], [ %indvars.iv.next, %45 ]
  %indvars.iv.next = add nsw i64 %indvars.iv, -1
  %24 = load ptr, ptr %15, align 8
  %25 = getelementptr inbounds i32, ptr %24, i64 %indvars.iv.next
  %26 = load i32, ptr %25, align 4
  %27 = ashr i32 %26, 1
  %.val44 = load ptr, ptr %16, align 8
  %28 = sext i32 %27 to i64
  %29 = getelementptr inbounds i8, ptr %.val44, i64 %28
  store i8 3, ptr %29, align 1
  %30 = load ptr, ptr %17, align 8
  %31 = getelementptr inbounds i32, ptr %30, i64 %28
  store i32 0, ptr %31, align 4
  %32 = load ptr, ptr %18, align 8
  %33 = getelementptr inbounds i32, ptr %32, i64 %28
  store i32 0, ptr %33, align 4
  %.not39 = icmp sgt i64 %indvars.iv, %21
  br i1 %.not39, label %45, label %34

34:                                               ; preds = %23
  %35 = load ptr, ptr %15, align 8
  %36 = getelementptr inbounds i32, ptr %35, i64 %indvars.iv.next
  %37 = load i32, ptr %36, align 4
  %.val45 = load ptr, ptr %19, align 8
  %38 = getelementptr inbounds %struct.varinfo2_t, ptr %.val45, i64 %28
  %39 = trunc i32 %37 to i8
  %40 = and i8 %39, 1
  %41 = load i8, ptr %38, align 4
  %42 = and i8 %41, -2
  %43 = or disjoint i8 %42, %40
  %44 = xor i8 %43, 1
  store i8 %44, ptr %38, align 4
  br label %45

45:                                               ; preds = %23, %34
  %.not37.not = icmp sgt i64 %indvars.iv.next, %22
  br i1 %.not37.not, label %23, label %._crit_edge, !llvm.loop !77

._crit_edge:                                      ; preds = %45, %4
  %46 = getelementptr inbounds nuw i8, ptr %0, i64 8
  %47 = load i32, ptr %46, align 8
  %.not38.not50 = icmp sgt i32 %47, %8
  br i1 %.not38.not50, label %.lr.ph53, label %._crit_edge54

.lr.ph53:                                         ; preds = %._crit_edge
  %48 = getelementptr inbounds nuw i8, ptr %0, i64 256
  %49 = getelementptr inbounds nuw i8, ptr %0, i64 264
  %50 = getelementptr inbounds nuw i8, ptr %0, i64 328
  %51 = getelementptr i8, ptr %0, i64 332
  %52 = getelementptr i8, ptr %0, i64 336
  %53 = getelementptr inbounds nuw i8, ptr %0, i64 56
  %54 = sext i32 %47 to i64
  %55 = sext i32 %8 to i64
  br label %56

56:                                               ; preds = %.lr.ph53, %order_unassigned.exit
  %indvars.iv56 = phi i64 [ %54, %.lr.ph53 ], [ %indvars.iv.next57, %order_unassigned.exit ]
  %indvars.iv.next57 = add nsw i64 %indvars.iv56, -1
  %57 = load ptr, ptr %48, align 8
  %58 = getelementptr inbounds i32, ptr %57, i64 %indvars.iv.next57
  %59 = load i32, ptr %58, align 4
  %60 = ashr i32 %59, 1
  %61 = load ptr, ptr %49, align 8
  %62 = sext i32 %60 to i64
  %63 = getelementptr inbounds i32, ptr %61, i64 %62
  %64 = load i32, ptr %63, align 4
  %65 = icmp eq i32 %64, -1
  br i1 %65, label %66, label %order_unassigned.exit

66:                                               ; preds = %56
  %.val.i = load i32, ptr %51, align 4
  store i32 %.val.i, ptr %63, align 4
  tail call fastcc void @veci_push(ptr noundef nonnull %50, i32 noundef range(i32 -1073741824, 1073741824) %60)
  %67 = load ptr, ptr %49, align 8
  %.val.i.i = load ptr, ptr %52, align 8
  %68 = getelementptr inbounds i32, ptr %67, i64 %62
  %69 = load i32, ptr %68, align 4
  %70 = sext i32 %69 to i64
  %71 = getelementptr inbounds i32, ptr %.val.i.i, i64 %70
  %72 = load i32, ptr %71, align 4
  %.not31.i.i = icmp eq i32 %69, 0
  %.pre.i.i = sext i32 %72 to i64
  br i1 %.not31.i.i, label %order_update.exit.i, label %.lr.ph.i.i

.lr.ph.i.i:                                       ; preds = %66, %83
  %.02832.i.i = phi i32 [ %.033.i.i, %83 ], [ %69, %66 ]
  %.033.in.i.i = add nsw i32 %.02832.i.i, -1
  %.033.i.i = sdiv i32 %.033.in.i.i, 2
  %73 = load ptr, ptr %53, align 8
  %74 = getelementptr inbounds i32, ptr %73, i64 %.pre.i.i
  %75 = load i32, ptr %74, align 4
  %76 = sext i32 %.033.i.i to i64
  %77 = getelementptr inbounds i32, ptr %.val.i.i, i64 %76
  %78 = load i32, ptr %77, align 4
  %79 = sext i32 %78 to i64
  %80 = getelementptr inbounds i32, ptr %73, i64 %79
  %81 = load i32, ptr %80, align 4
  %82 = icmp ugt i32 %75, %81
  br i1 %82, label %83, label %order_update.exit.i

83:                                               ; preds = %.lr.ph.i.i
  %84 = sext i32 %.02832.i.i to i64
  %85 = getelementptr inbounds i32, ptr %.val.i.i, i64 %84
  store i32 %78, ptr %85, align 4
  %86 = getelementptr inbounds i32, ptr %67, i64 %79
  store i32 %.02832.i.i, ptr %86, align 4
  %.not.i.i = icmp ult i32 %.02832.i.i, 3
  br i1 %.not.i.i, label %order_update.exit.i, label %.lr.ph.i.i, !llvm.loop !15

order_update.exit.i:                              ; preds = %83, %.lr.ph.i.i, %66
  %.028.lcssa.i.i = phi i32 [ 0, %66 ], [ %.033.i.i, %83 ], [ %.02832.i.i, %.lr.ph.i.i ]
  %87 = sext i32 %.028.lcssa.i.i to i64
  %88 = getelementptr inbounds i32, ptr %.val.i.i, i64 %87
  store i32 %72, ptr %88, align 4
  %89 = getelementptr inbounds i32, ptr %67, i64 %.pre.i.i
  store i32 %.028.lcssa.i.i, ptr %89, align 4
  br label %order_unassigned.exit

order_unassigned.exit:                            ; preds = %56, %order_update.exit.i
  %.not38.not = icmp sgt i64 %indvars.iv.next57, %55
  br i1 %.not38.not, label %56, label %._crit_edge54, !llvm.loop !78

._crit_edge54:                                    ; preds = %order_unassigned.exit, %._crit_edge
  store i32 %8, ptr %9, align 4
  store i32 %8, ptr %46, align 8
  store i32 %1, ptr %3, align 4
  br label %90

90:                                               ; preds = %2, %._crit_edge54
  ret void
}